target datalayout = "e-m:e-p270:32:32-p271:32:32-p272:64:64-i64:64-i128:128-f80:128-n8:16:32:64-S128"
target triple = "x86_64-pc-linux-gnu"

%struct.quicklistNode = type { ptr, ptr, ptr, i64, i32 }

; Function Attrs: nounwind uwtable
define dso_local ptr @quicklistCreateNode() #0 {
  %1 = alloca ptr, align 8
  call void @llvm.lifetime.start.p0(i64 8, ptr %1) #10
  %2 = call noalias ptr @zmalloc(i64 noundef 40) #11
  store ptr %2, ptr %1, align 8, !tbaa !12
  %3 = load ptr, ptr %1, align 8, !tbaa !12
  %4 = getelementptr inbounds nuw %struct.quicklistNode, ptr %3, i32 0, i32 2
  store ptr null, ptr %4, align 8, !tbaa !16
  %5 = load ptr, ptr %1, align 8, !tbaa !12
  %6 = getelementptr inbounds nuw %struct.quicklistNode, ptr %5, i32 0, i32 4
  %7 = load i32, ptr %6, align 8
  %8 = and i32 %7, -65536
  %9 = or i32 %8, 0
  store i32 %9, ptr %6, align 8
  %10 = load ptr, ptr %1, align 8, !tbaa !12
  %11 = getelementptr inbounds nuw %struct.quicklistNode, ptr %10, i32 0, i32 3
  store i64 0, ptr %11, align 8, !tbaa !19
  %12 = load ptr, ptr %1, align 8, !tbaa !12
  %13 = getelementptr inbounds nuw %struct.quicklistNode, ptr %12, i32 0, i32 0
  store ptr null, ptr %13, align 8, !tbaa !20
  %14 = load ptr, ptr %1, align 8, !tbaa !12
  %15 = getelementptr inbounds nuw %struct.quicklistNode, ptr %14, i32 0, i32 1
  store ptr null, ptr %15, align 8, !tbaa !21
  %16 = load ptr, ptr %1, align 8, !tbaa !12
  %17 = getelementptr inbounds nuw %struct.quicklistNode, ptr %16, i32 0, i32 4
  %18 = load i32, ptr %17, align 8
  %19 = and i32 %18, -196609
  %20 = or i32 %19, 65536
  store i32 %20, ptr %17, align 8
  %21 = load ptr, ptr %1, align 8, !tbaa !12
  %22 = getelementptr inbounds nuw %struct.quicklistNode, ptr %21, i32 0, i32 4
  %23 = load i32, ptr %22, align 8
  %24 = and i32 %23, -786433
  %25 = or i32 %24, 524288
  store i32 %25, ptr %22, align 8
  %26 = load ptr, ptr %1, align 8, !tbaa !12
  %27 = getelementptr inbounds nuw %struct.quicklistNode, ptr %26, i32 0, i32 4
  %28 = load i32, ptr %27, align 8
  %29 = and i32 %28, -1048577
  %30 = or i32 %29, 0
  store i32 %30, ptr %27, align 8
  %31 = load ptr, ptr %1, align 8, !tbaa !12
  %32 = getelementptr inbounds nuw %struct.quicklistNode, ptr %31, i32 0, i32 4
  %33 = load i32, ptr %32, align 8
  %34 = and i32 %33, -4194305
  %35 = or i32 %34, 0
  store i32 %35, ptr %32, align 8
  %36 = load ptr, ptr %1, align 8, !tbaa !12
  call void @llvm.lifetime.end.p0(i64 8, ptr %1) #10
  ret ptr %36
}

; Function Attrs: nounwind uwtable
define internal ptr @__quicklistCreateNode(i32 noundef %0, ptr noundef %1, i64 noundef %2) #0 {
  %4 = alloca i32, align 4
  %5 = alloca ptr, align 8
  %6 = alloca i64, align 8
  %7 = alloca ptr, align 8
  store i32 %0, ptr %4, align 4, !tbaa !14
  store ptr %1, ptr %5, align 8, !tbaa !29
  store i64 %2, ptr %6, align 8, !tbaa !5
  call void @llvm.lifetime.start.p0(i64 8, ptr %7) #10
  %8 = call ptr @quicklistCreateNode()
  store ptr %8, ptr %7, align 8, !tbaa !12
  %9 = load i32, ptr %4, align 4, !tbaa !14
  %10 = load ptr, ptr %7, align 8, !tbaa !12
  %11 = getelementptr inbounds nuw %struct.quicklistNode, ptr %10, i32 0, i32 4
  %12 = load i32, ptr %11, align 8
  %13 = and i32 %9, 3
  %14 = shl i32 %13, 18
  %15 = and i32 %12, -786433
  %16 = or i32 %15, %14
  store i32 %16, ptr %11, align 8
  %17 = load i32, ptr %4, align 4, !tbaa !14
  %18 = icmp eq i32 %17, 1
  br i1 %18, label %19, label %29

19:                                               ; preds = %3
  %20 = load i64, ptr %6, align 8, !tbaa !5
  %21 = call noalias ptr @zmalloc(i64 noundef %20) #11
  %22 = load ptr, ptr %7, align 8, !tbaa !12
  %23 = getelementptr inbounds nuw %struct.quicklistNode, ptr %22, i32 0, i32 2
  store ptr %21, ptr %23, align 8, !tbaa !16
  %24 = load ptr, ptr %7, align 8, !tbaa !12
  %25 = getelementptr inbounds nuw %struct.quicklistNode, ptr %24, i32 0, i32 2
  %26 = load ptr, ptr %25, align 8, !tbaa !16
  %27 = load ptr, ptr %5, align 8, !tbaa !29
  %28 = load i64, ptr %6, align 8, !tbaa !5
  call void @llvm.memcpy.p0.p0.i64(ptr align 1 %26, ptr align 1 %27, i64 %28, i1 false)
  br label %37

29:                                               ; preds = %3
  %30 = call ptr @lpNew(i64 noundef 0)
  %31 = load ptr, ptr %5, align 8, !tbaa !29
  %32 = load i64, ptr %6, align 8, !tbaa !5
  %33 = trunc i64 %32 to i32
  %34 = call ptr @lpPrepend(ptr noundef %30, ptr noundef %31, i32 noundef %33)
  %35 = load ptr, ptr %7, align 8, !tbaa !12
  %36 = getelementptr inbounds nuw %struct.quicklistNode, ptr %35, i32 0, i32 2
  store ptr %34, ptr %36, align 8, !tbaa !16
  br label %37

37:                                               ; preds = %29, %19
  %38 = load i64, ptr %6, align 8, !tbaa !5
  %39 = load ptr, ptr %7, align 8, !tbaa !12
  %40 = getelementptr inbounds nuw %struct.quicklistNode, ptr %39, i32 0, i32 3
  store i64 %38, ptr %40, align 8, !tbaa !19
  %41 = load ptr, ptr %7, align 8, !tbaa !12
  %42 = getelementptr inbounds nuw %struct.quicklistNode, ptr %41, i32 0, i32 4
  %43 = load i32, ptr %42, align 8
  %44 = and i32 %43, 65535
  %45 = add i32 %44, 1
  %46 = load i32, ptr %42, align 8
  %47 = and i32 %45, 65535
  %48 = and i32 %46, -65536
  %49 = or i32 %48, %47
  store i32 %49, ptr %42, align 8
  %50 = load ptr, ptr %7, align 8, !tbaa !12
  call void @llvm.lifetime.end.p0(i64 8, ptr %7) #10
  ret ptr %50
}