; Function Attrs: nounwind uwtable
define internal fastcc noalias noundef ptr @__quicklistCreateNode(i32 noundef range(i32 1, 3) %0, ptr noundef %1, i64 noundef %2) unnamed_addr #1 {
  %4 = tail call noalias dereferenceable_or_null(40) ptr @zmalloc(i64 noundef 40) #22
  %5 = getelementptr inbounds nuw i8, ptr %4, i64 32
  %6 = load i32, ptr %5, align 8
  tail call void @llvm.memset.p0.i64(ptr noundef nonnull align 8 dereferenceable(16) %4, i8 0, i64 16, i1 false)
  %7 = icmp eq i32 %0, 1
  br i1 %7, label %8, label %10

8:                                                ; preds = %3
  %9 = tail call noalias ptr @zmalloc(i64 noundef %2) #22
  tail call void @llvm.memcpy.p0.p0.i64(ptr align 1 %9, ptr align 1 %1, i64 %2, i1 false)
  br label %14

10:                                               ; preds = %3
  %11 = tail call ptr @lpNew(i64 noundef 0) #23
  %12 = trunc i64 %2 to i32
  %13 = tail call ptr @lpPrepend(ptr noundef %11, ptr noundef %1, i32 noundef %12) #23
  br label %14

14:                                               ; preds = %10, %8
  %.sink = phi ptr [ %9, %8 ], [ %13, %10 ]
  %15 = and i32 %6, -6291456
  %16 = shl nuw nsw i32 %0, 18
  %17 = or disjoint i32 %15, %16
  %18 = getelementptr inbounds nuw i8, ptr %4, i64 24
  %19 = getelementptr inbounds nuw i8, ptr %4, i64 16
  store ptr %.sink, ptr %19, align 8, !tbaa !9
  store i64 %2, ptr %18, align 8, !tbaa !15
  %20 = or disjoint i32 %17, 65537
  store i32 %20, ptr %5, align 8
  ret ptr %4
}